target datalayout = "e-m:e-p270:32:32-p271:32:32-p272:64:64-i64:64-i128:128-f80:128-n8:16:32:64-S128"
target triple = "x86_64-pc-linux-gnu"

%struct.AVRational = type { i32, i32 }
%struct.AVFormatContext = type { ptr, ptr, ptr, ptr, ptr, i32, i32, ptr, i32, ptr, i32, ptr, ptr, i64, i64, i64, i32, i32, i32, i64, i64, ptr, i32, i32, ptr, i32, i32, i32, i32, ptr, i64, i32, i32, %struct.AVIOInterruptCB, i32, i32, i32, i32, i64, i32, i32, i32, i32, i32, i32, i32, i32, i32, i32, i32, i32, i64, i32, i32, i32, i32, i32, ptr, ptr, ptr, ptr, i32, ptr, ptr, ptr, ptr, i32, ptr, ptr, i64, ptr, ptr, ptr, i64 }
%struct.AVIOInterruptCB = type { ptr, ptr }
%struct.AVPacket = type { ptr, i64, i64, ptr, i32, i32, i32, ptr, i32, i64, i64, ptr, ptr, %struct.AVRational }
%struct.MviDemuxContext = type { ptr, i64, i64, i32, i32 }

; Function Attrs: nounwind uwtable
define internal i32 @read_packet(ptr noundef %0, ptr noundef %1) #0 {
  %3 = alloca i32, align 4
  %4 = alloca ptr, align 8
  %5 = alloca ptr, align 8
  %6 = alloca i32, align 4
  %7 = alloca i32, align 4
  %8 = alloca ptr, align 8
  %9 = alloca ptr, align 8
  %10 = alloca i32, align 4
  store ptr %0, ptr %4, align 8, !tbaa !4
  store ptr %1, ptr %5, align 8, !tbaa !62
  call void @llvm.lifetime.start.p0(i64 4, ptr %6) #5
  call void @llvm.lifetime.start.p0(i64 4, ptr %7) #5
  call void @llvm.lifetime.start.p0(i64 8, ptr %8) #5
  %11 = load ptr, ptr %4, align 8, !tbaa !4
  %12 = getelementptr inbounds nuw %struct.AVFormatContext, ptr %11, i32 0, i32 3
  %13 = load ptr, ptr %12, align 8, !tbaa !9
  store ptr %13, ptr %8, align 8, !tbaa !26
  call void @llvm.lifetime.start.p0(i64 8, ptr %9) #5
  %14 = load ptr, ptr %4, align 8, !tbaa !4
  %15 = getelementptr inbounds nuw %struct.AVFormatContext, ptr %14, i32 0, i32 4
  %16 = load ptr, ptr %15, align 8, !tbaa !28
  store ptr %16, ptr %9, align 8, !tbaa !29
  %17 = load ptr, ptr %8, align 8, !tbaa !26
  %18 = getelementptr inbounds nuw %struct.MviDemuxContext, ptr %17, i32 0, i32 4
  %19 = load i32, ptr %18, align 4, !tbaa !64
  %20 = icmp eq i32 %19, 0
  br i1 %20, label %21, label %108

21:                                               ; preds = %2
  %22 = load ptr, ptr %8, align 8, !tbaa !26
  %23 = getelementptr inbounds nuw %struct.MviDemuxContext, ptr %22, i32 0, i32 0
  %24 = load ptr, ptr %23, align 8, !tbaa !57
  %25 = load ptr, ptr %9, align 8, !tbaa !29
  %26 = call i32 %24(ptr noundef %25)
  %27 = load ptr, ptr %8, align 8, !tbaa !26
  %28 = getelementptr inbounds nuw %struct.MviDemuxContext, ptr %27, i32 0, i32 4
  store i32 %26, ptr %28, align 4, !tbaa !64
  %29 = load ptr, ptr %8, align 8, !tbaa !26
  %30 = getelementptr inbounds nuw %struct.MviDemuxContext, ptr %29, i32 0, i32 3
  %31 = load i32, ptr %30, align 8, !tbaa !61
  %32 = icmp eq i32 %31, 0
  br i1 %32, label %33, label %34

33:                                               ; preds = %21
  store i32 -5, ptr %3, align 4
  store i32 1, ptr %10, align 4
  br label %124

34:                                               ; preds = %21
  %35 = load ptr, ptr %8, align 8, !tbaa !26
  %36 = getelementptr inbounds nuw %struct.MviDemuxContext, ptr %35, i32 0, i32 1
  %37 = load i64, ptr %36, align 8, !tbaa !60
  %38 = add i64 %37, 512
  %39 = load ptr, ptr %8, align 8, !tbaa !26
  %40 = getelementptr inbounds nuw %struct.MviDemuxContext, ptr %39, i32 0, i32 2
  %41 = load i64, ptr %40, align 8, !tbaa !59
  %42 = sub i64 -1, %41
  %43 = icmp ugt i64 %38, %42
  br i1 %43, label %54, label %44

44:                                               ; preds = %34
  %45 = load ptr, ptr %8, align 8, !tbaa !26
  %46 = getelementptr inbounds nuw %struct.MviDemuxContext, ptr %45, i32 0, i32 1
  %47 = load i64, ptr %46, align 8, !tbaa !60
  %48 = add i64 %47, 512
  %49 = load ptr, ptr %8, align 8, !tbaa !26
  %50 = getelementptr inbounds nuw %struct.MviDemuxContext, ptr %49, i32 0, i32 2
  %51 = load i64, ptr %50, align 8, !tbaa !59
  %52 = add i64 %48, %51
  %53 = icmp uge i64 %52, 2199023254528
  br i1 %53, label %54, label %55

54:                                               ; preds = %44, %34
  store i32 -1094995529, ptr %3, align 4
  store i32 1, ptr %10, align 4
  br label %124

55:                                               ; preds = %44
  %56 = load ptr, ptr %8, align 8, !tbaa !26
  %57 = getelementptr inbounds nuw %struct.MviDemuxContext, ptr %56, i32 0, i32 1
  %58 = load i64, ptr %57, align 8, !tbaa !60
  %59 = load ptr, ptr %8, align 8, !tbaa !26
  %60 = getelementptr inbounds nuw %struct.MviDemuxContext, ptr %59, i32 0, i32 2
  %61 = load i64, ptr %60, align 8, !tbaa !59
  %62 = add i64 %58, %61
  %63 = add i64 %62, 512
  %64 = lshr i64 %63, 10
  %65 = trunc i64 %64 to i32
  store i32 %65, ptr %7, align 4, !tbaa !39
  %66 = load i32, ptr %7, align 4, !tbaa !39
  %67 = load ptr, ptr %8, align 8, !tbaa !26
  %68 = getelementptr inbounds nuw %struct.MviDemuxContext, ptr %67, i32 0, i32 3
  %69 = load i32, ptr %68, align 8, !tbaa !61
  %70 = icmp sgt i32 %66, %69
  br i1 %70, label %71, label %75

71:                                               ; preds = %55
  %72 = load ptr, ptr %8, align 8, !tbaa !26
  %73 = getelementptr inbounds nuw %struct.MviDemuxContext, ptr %72, i32 0, i32 3
  %74 = load i32, ptr %73, align 8, !tbaa !61
  store i32 %74, ptr %7, align 4, !tbaa !39
  br label %75

75:                                               ; preds = %71, %55
  %76 = load i32, ptr %7, align 4, !tbaa !39
  %77 = sext i32 %76 to i64
  %78 = shl i64 %77, 10
  %79 = icmp sgt i64 %78, 2147483647
  br i1 %79, label %80, label %81

80:                                               ; preds = %75
  store i32 -1094995529, ptr %3, align 4
  store i32 1, ptr %10, align 4
  br label %124

81:                                               ; preds = %75
  %82 = load ptr, ptr %9, align 8, !tbaa !29
  %83 = load ptr, ptr %5, align 8, !tbaa !62
  %84 = load i32, ptr %7, align 4, !tbaa !39
  %85 = call i32 @av_get_packet(ptr noundef %82, ptr noundef %83, i32 noundef %84)
  store i32 %85, ptr %6, align 4, !tbaa !39
  %86 = icmp slt i32 %85, 0
  br i1 %86, label %87, label %89

87:                                               ; preds = %81
  %88 = load i32, ptr %6, align 4, !tbaa !39
  store i32 %88, ptr %3, align 4
  store i32 1, ptr %10, align 4
  br label %124

89:                                               ; preds = %81
  %90 = load ptr, ptr %5, align 8, !tbaa !62
  %91 = getelementptr inbounds nuw %struct.AVPacket, ptr %90, i32 0, i32 5
  store i32 0, ptr %91, align 4, !tbaa !65
  %92 = load i32, ptr %7, align 4, !tbaa !39
  %93 = load ptr, ptr %8, align 8, !tbaa !26
  %94 = getelementptr inbounds nuw %struct.MviDemuxContext, ptr %93, i32 0, i32 3
  %95 = load i32, ptr %94, align 8, !tbaa !61
  %96 = sub nsw i32 %95, %92
  store i32 %96, ptr %94, align 8, !tbaa !61
  %97 = load ptr, ptr %8, align 8, !tbaa !26
  %98 = getelementptr inbounds nuw %struct.MviDemuxContext, ptr %97, i32 0, i32 2
  %99 = load i64, ptr %98, align 8, !tbaa !59
  %100 = load i32, ptr %7, align 4, !tbaa !39
  %101 = shl i32 %100, 10
  %102 = sext i32 %101 to i64
  %103 = sub i64 %99, %102
  %104 = load ptr, ptr %8, align 8, !tbaa !26
  %105 = getelementptr inbounds nuw %struct.MviDemuxContext, ptr %104, i32 0, i32 1
  %106 = load i64, ptr %105, align 8, !tbaa !60
  %107 = add i64 %106, %103
  store i64 %107, ptr %105, align 8, !tbaa !60
  br label %123

108:                                              ; preds = %2
  %109 = load ptr, ptr %9, align 8, !tbaa !29
  %110 = load ptr, ptr %5, align 8, !tbaa !62
  %111 = load ptr, ptr %8, align 8, !tbaa !26
  %112 = getelementptr inbounds nuw %struct.MviDemuxContext, ptr %111, i32 0, i32 4
  %113 = load i32, ptr %112, align 4, !tbaa !64
  %114 = call i32 @av_get_packet(ptr noundef %109, ptr noundef %110, i32 noundef %113)
  store i32 %114, ptr %6, align 4, !tbaa !39
  %115 = icmp slt i32 %114, 0
  br i1 %115, label %116, label %118

116:                                              ; preds = %108
  %117 = load i32, ptr %6, align 4, !tbaa !39
  store i32 %117, ptr %3, align 4
  store i32 1, ptr %10, align 4
  br label %124

118:                                              ; preds = %108
  %119 = load ptr, ptr %5, align 8, !tbaa !62
  %120 = getelementptr inbounds nuw %struct.AVPacket, ptr %119, i32 0, i32 5
  store i32 1, ptr %120, align 4, !tbaa !65
  %121 = load ptr, ptr %8, align 8, !tbaa !26
  %122 = getelementptr inbounds nuw %struct.MviDemuxContext, ptr %121, i32 0, i32 4
  store i32 0, ptr %122, align 4, !tbaa !64
  br label %123

123:                                              ; preds = %118, %89
  store i32 0, ptr %3, align 4
  store i32 1, ptr %10, align 4
  br label %124

124:                                              ; preds = %123, %116, %87, %80, %54, %33
  call void @llvm.lifetime.end.p0(i64 8, ptr %9) #5
  call void @llvm.lifetime.end.p0(i64 8, ptr %8) #5
  call void @llvm.lifetime.end.p0(i64 4, ptr %7) #5
  call void @llvm.lifetime.end.p0(i64 4, ptr %6) #5
  %125 = load i32, ptr %3, align 4
  ret i32 %125
}