; Function Attrs: nounwind uwtable
define internal range(i32 -2147483648, 1) i32 @read_packet(ptr noundef readonly captures(none) %0, ptr noundef %1) #0 {
  %3 = getelementptr inbounds nuw i8, ptr %0, i64 24
  %4 = load ptr, ptr %3, align 8, !tbaa !4
  %5 = getelementptr inbounds nuw i8, ptr %0, i64 32
  %6 = load ptr, ptr %5, align 8, !tbaa !24
  %7 = getelementptr inbounds nuw i8, ptr %4, i64 28
  %8 = load i32, ptr %7, align 4, !tbaa !50
  %9 = icmp eq i32 %8, 0
  br i1 %9, label %10, label %43

10:                                               ; preds = %2
  %11 = load ptr, ptr %4, align 8, !tbaa !45
  %12 = tail call i32 %11(ptr noundef %6) #3
  store i32 %12, ptr %7, align 4, !tbaa !50
  %13 = getelementptr inbounds nuw i8, ptr %4, i64 24
  %14 = load i32, ptr %13, align 8, !tbaa !49
  %15 = icmp eq i32 %14, 0
  br i1 %15, label %48, label %16

16:                                               ; preds = %10
  %17 = getelementptr inbounds nuw i8, ptr %4, i64 8
  %18 = load i64, ptr %17, align 8, !tbaa !48
  %19 = add i64 %18, 512
  %20 = getelementptr inbounds nuw i8, ptr %4, i64 16
  %21 = load i64, ptr %20, align 8, !tbaa !47
  %22 = xor i64 %21, -1
  %23 = icmp ugt i64 %19, %22
  %24 = add i64 %19, %21
  %25 = icmp ugt i64 %24, 2199023254527
  %or.cond = or i1 %23, %25
  br i1 %or.cond, label %48, label %26

26:                                               ; preds = %16
  %27 = lshr i64 %24, 10
  %28 = trunc nuw nsw i64 %27 to i32
  %spec.select = tail call i32 @llvm.smin.i32(i32 %14, i32 %28)
  %29 = icmp sgt i32 %spec.select, 2097151
  br i1 %29, label %48, label %30

30:                                               ; preds = %26
  %31 = tail call i32 @av_get_packet(ptr noundef %6, ptr noundef %1, i32 noundef %spec.select) #3
  %32 = icmp slt i32 %31, 0
  br i1 %32, label %48, label %33

33:                                               ; preds = %30
  %34 = getelementptr inbounds nuw i8, ptr %1, i64 36
  store i32 0, ptr %34, align 4, !tbaa !51
  %35 = load i32, ptr %13, align 8, !tbaa !49
  %36 = sub nsw i32 %35, %spec.select
  store i32 %36, ptr %13, align 8, !tbaa !49
  %37 = load i64, ptr %20, align 8, !tbaa !47
  %38 = shl i32 %spec.select, 10
  %39 = sext i32 %38 to i64
  %40 = sub i64 %37, %39
  %41 = load i64, ptr %17, align 8, !tbaa !48
  %42 = add i64 %40, %41
  store i64 %42, ptr %17, align 8, !tbaa !48
  br label %48

43:                                               ; preds = %2
  %44 = tail call i32 @av_get_packet(ptr noundef %6, ptr noundef %1, i32 noundef %8) #3
  %45 = icmp slt i32 %44, 0
  br i1 %45, label %48, label %46

46:                                               ; preds = %43
  %47 = getelementptr inbounds nuw i8, ptr %1, i64 36
  store i32 1, ptr %47, align 4, !tbaa !51
  store i32 0, ptr %7, align 4, !tbaa !50
  br label %48

48:                                               ; preds = %33, %46, %43, %30, %26, %16, %10
  %.0 = phi i32 [ -5, %10 ], [ -1094995529, %16 ], [ -1094995529, %26 ], [ %31, %30 ], [ %44, %43 ], [ 0, %46 ], [ 0, %33 ]
  ret i32 %.0
}